(lp1
(lp2
L4L
aVBooks
p3
aa(lp4
L5L
ag3
aa(lp5
L6L
ag3
aa(lp6
L9L
ag3
aa(lp7
L15L
ag3
aa(lp8
L27L
ag3
aa(lp9
L39L
ag3
aa(lp10
L40L
ag3
aa(lp11
L43L
ag3
aa(lp12
L53L
ag3
aa(lp13
L64L
ag3
aa(lp14
L13L
aVMovies
p15
aa(lp16
L15L
ag15
aa(lp17
L16L
ag15
aa(lp18
L17L
ag15
aa(lp19
L19L
ag15
aa(lp20
L21L
ag15
aa(lp21
L57L
ag15
aa(lp22
L62L
ag15
aa(lp23
L63L
ag15
aa(lp24
L67L
ag15
aa(lp25
L105L
ag15
aa(lp26
L108L
ag15
aa(lp27
L10L
aVComplaints
p28
aa(lp29
L16L
ag28
aa(lp30
L17L
ag28
aa(lp31
L18L
ag28
aa(lp32
L19L
ag28
aa(lp33
L20L
ag28
aa(lp34
L21L
ag28
aa(lp35
L25L
ag28
aa(lp36
L26L
ag28
aa(lp37
L28L
ag28
aa(lp38
L36L
ag28
aa(lp39
L40L
ag28
aa(lp40
L41L
ag28
aa(lp41
L52L
ag28
aa(lp42
L54L
ag28
aa(lp43
L56L
ag28
aa(lp44
L58L
ag28
aa(lp45
L67L
ag28
aa(lp46
L68L
ag28
aa(lp47
L76L
ag28
aa(lp48
L77L
ag28
aa(lp49
L84L
ag28
aa(lp50
L135L
ag28
aa(lp51
L134L
ag28
aa(lp52
L1L
aVCelebrations
p53
aa(lp54
L12L
ag53
aa(lp55
L16L
ag53
aa(lp56
L18L
ag53
aa(lp57
L19L
ag53
aa(lp58
L21L
ag53
aa(lp59
L23L
ag53
aa(lp60
L27L
ag53
aa(lp61
L32L
ag53
aa(lp62
L33L
ag53
aa(lp63
L35L
ag53
aa(lp64
L36L
ag53
aa(lp65
L37L
ag53
aa(lp66
L39L
ag53
aa(lp67
L103L
ag53
aa(lp68
L41L
ag53
aa(lp69
L42L
ag53
aa(lp70
L85L
ag53
aa(lp71
L51L
ag53
aa(lp72
L52L
ag53
aa(lp73
L54L
ag53
aa(lp74
L55L
ag53
aa(lp75
L56L
ag53
aa(lp76
L57L
ag53
aa(lp77
L58L
ag53
aa(lp78
L59L
ag53
aa(lp79
L60L
ag53
aa(lp80
L63L
ag53
aa(lp81
L65L
ag53
aa(lp82
L66L
ag53
aa(lp83
L67L
ag53
aa(lp84
L70L
ag53
aa(lp85
L71L
ag53
aa(lp86
L72L
ag53
aa(lp87
L74L
ag53
aa(lp88
L77L
ag53
aa(lp89
L79L
ag53
aa(lp90
L81L
ag53
aa(lp91
L86L
ag53
aa(lp92
L88L
ag53
aa(lp93
L87L
ag53
aa(lp94
L92L
ag53
aa(lp95
L97L
ag53
aa(lp96
L98L
ag53
aa(lp97
L105L
ag53
aa(lp98
L110L
ag53
aa(lp99
L118L
ag53
aa(lp100
L119L
ag53
aa(lp101
L120L
ag53
aa(lp102
L121L
ag53
aa(lp103
L126L
ag53
aa(lp104
L127L
ag53
aa(lp105
L130L
ag53
aa(lp106
L134L
ag53
aa(lp107
L147L
ag53
aa(lp108
L82L
aVFun
p109
aa(lp110
L138L
ag109
aa(lp111
L137L
ag109
aa(lp112
L136L
ag109
aa(lp113
L104L
ag109
aa(lp114
L117L
ag109
aa(lp115
L124L
ag109
aa(lp116
L144L
ag109
aa(lp117
L139L
ag109
aa(lp118
L140L
ag109
aa(lp119
L141L
ag109
aa(lp120
L142L
ag109
aa(lp121
L145L
ag109
aa(lp122
L146L
ag109
aa(lp123
L148L
ag109
aa(lp124
L149L
ag109
aa(lp125
L150L
ag109
aa(lp126
L151L
ag109
aa(lp127
L152L
ag109
aa(lp128
L153L
ag109
aa(lp129
L154L
ag109
aa(lp130
L15L
aVCAR
p131
aa(lp132
L24L
ag131
aa(lp133
L29L
ag131
aa(lp134
L37L
ag131
aa(lp135
L43L
ag131
aa(lp136
L49L
ag131
aa(lp137
L52L
ag131
aa(lp138
L54L
ag131
aa(lp139
L61L
ag131
aa(lp140
L65L
ag131
aa(lp141
L69L
ag131
aa(lp142
L71L
ag131
aa(lp143
L89L
ag131
aa(lp144
L93L
ag131
aa(lp145
L95L
ag131
aa(lp146
L96L
ag131
aa(lp147
L97L
ag131
aa(lp148
L100L
ag131
aa(lp149
L106L
ag131
aa(lp150
L107L
ag131
aa(lp151
L108L
ag131
aa(lp152
L109L
ag131
aa(lp153
L110L
ag131
aa(lp154
L113L
ag131
aa(lp155
L112L
ag131
aa(lp156
L120L
ag131
aa(lp157
L122L
ag131
aa(lp158
L128L
ag131
aa(lp159
L129L
ag131
aa(lp160
L133L
ag131
aa(lp161
L134L
ag131
aa(lp162
L147L
ag131
aa(lp163
L7L
aVThe News
p164
aa(lp165
L8L
ag164
aa(lp166
L13L
ag164
aa(lp167
L15L
ag164
aa(lp168
L22L
ag164
aa(lp169
L26L
ag164
aa(lp170
L28L
ag164
aa(lp171
L29L
ag164
aa(lp172
L34L
ag164
aa(lp173
L40L
ag164
aa(lp174
L41L
ag164
aa(lp175
L43L
ag164
aa(lp176
L45L
ag164
aa(lp177
L54L
ag164
aa(lp178
L61L
ag164
aa(lp179
L64L
ag164
aa(lp180
L65L
ag164
aa(lp181
L67L
ag164
aa(lp182
L68L
ag164
aa(lp183
L69L
ag164
aa(lp184
L77L
ag164
aa(lp185
L78L
ag164
aa(lp186
L80L
ag164
aa(lp187
L135L
ag164
aa(lp188
L90L
ag164
aa(lp189
L89L
ag164
aa(lp190
L91L
ag164
aa(lp191
L92L
ag164
aa(lp192
L94L
ag164
aa(lp193
L96L
ag164
aa(lp194
L97L
ag164
aa(lp195
L99L
ag164
aa(lp196
L106L
ag164
aa(lp197
L110L
ag164
aa(lp198
L111L
ag164
aa(lp199
L113L
ag164
aa(lp200
L115L
ag164
aa(lp201
L116L
ag164
aa(lp202
L119L
ag164
aa(lp203
L120L
ag164
aa(lp204
L122L
ag164
aa(lp205
L127L
ag164
aa(lp206
L129L
ag164
aa(lp207
L130L
ag164
aa(lp208
L131L
ag164
aa(lp209
L133L
ag164
aa(lp210
L134L
ag164
aa(lp211
L147L
ag164
aa(lp212
L7L
aVQuestions
p213
aa(lp214
L8L
ag213
aa(lp215
L58L
ag213
aa(lp216
L61L
ag213
aa(lp217
L62L
ag213
aa(lp218
L64L
ag213
aa(lp219
L69L
ag213
aa(lp220
L74L
ag213
aa(lp221
L80L
ag213
aa(lp222
L81L
ag213
aa(lp223
L135L
ag213
aa(lp224
L84L
ag213
aa(lp225
L90L
ag213
aa(lp226
L91L
ag213
aa(lp227
L88L
ag213
aa(lp228
L92L
ag213
aa(lp229
L94L
ag213
aa(lp230
L99L
ag213
aa(lp231
L108L
ag213
aa(lp232
L115L
ag213
aa(lp233
L120L
ag213
aa(lp234
L121L
ag213
aa(lp235
L130L
ag213
aa(lp236
L131L
ag213
aa(lp237
L132L
ag213
aa(lp238
L12L
aVConcerts
p239
aa(lp240
L56L
ag239
aa(lp241
L58L
ag239
aa(lp242
L59L
ag239
aa(lp243
L60L
ag239
aa(lp244
L87L
ag239
aa(lp245
L10L
aVPop Music
p246
aa(lp247
L12L
ag246
aa(lp248
L15L
ag246
aa(lp249
L18L
ag246
aa(lp250
L23L
ag246
aa(lp251
L32L
ag246
aa(lp252
L33L
ag246
aa(lp253
L35L
ag246
aa(lp254
L36L
ag246
aa(lp255
L37L
ag246
aa(lp256
L42L
ag246
aa(lp257
L52L
ag246
aa(lp258
L54L
ag246
aa(lp259
L55L
ag246
aa(lp260
L56L
ag246
aa(lp261
L58L
ag246
aa(lp262
L59L
ag246
aa(lp263
L60L
ag246
aa(lp264
L66L
ag246
aa(lp265
L67L
ag246
aa(lp266
L70L
ag246
aa(lp267
L72L
ag246
aa(lp268
L79L
ag246
aa(lp269
L80L
ag246
aa(lp270
L88L
ag246
aa(lp271
L87L
ag246
aa(lp272
L99L
ag246
aa(lp273
L105L
ag246
aa(lp274
L114L
ag246
aa(lp275
L116L
ag246
aa(lp276
L126L
ag246
aa(lp277
L127L
ag246
aa(lp278
L25L
aVPredictions
p279
aa(lp280
L64L
ag279
aa(lp281
L94L
ag279
aa(lp282
L125L
aVPhotography
p283
aa(lp284
L87L
ag283
aa(lp285
L132L
ag283
aa.