(lp1
(lp2
(lp3
L4L
aVBooks
p4
aa(lp5
L5L
ag4
aa(lp6
L6L
ag4
aa(lp7
L9L
ag4
aa(lp8
L15L
ag4
aa(lp9
L27L
ag4
aa(lp10
L39L
ag4
aa(lp11
L40L
ag4
aa(lp12
L43L
ag4
aa(lp13
L53L
ag4
aa(lp14
L64L
ag4
aaa(lp15
(lp16
L13L
aVMovies
p17
aa(lp18
L15L
ag17
aa(lp19
L16L
ag17
aa(lp20
L17L
ag17
aa(lp21
L19L
ag17
aa(lp22
L21L
ag17
aa(lp23
L57L
ag17
aa(lp24
L62L
ag17
aa(lp25
L63L
ag17
aa(lp26
L67L
ag17
aa(lp27
L105L
ag17
aa(lp28
L108L
ag17
aaa(lp29
(lp30
L10L
aVComplaints
p31
aa(lp32
L16L
ag31
aa(lp33
L17L
ag31
aa(lp34
L18L
ag31
aa(lp35
L19L
ag31
aa(lp36
L20L
ag31
aa(lp37
L21L
ag31
aa(lp38
L25L
ag31
aa(lp39
L26L
ag31
aa(lp40
L28L
ag31
aa(lp41
L36L
ag31
aa(lp42
L40L
ag31
aa(lp43
L41L
ag31
aa(lp44
L52L
ag31
aa(lp45
L54L
ag31
aa(lp46
L56L
ag31
aa(lp47
L58L
ag31
aa(lp48
L67L
ag31
aa(lp49
L68L
ag31
aa(lp50
L76L
ag31
aa(lp51
L77L
ag31
aa(lp52
L84L
ag31
aa(lp53
L135L
ag31
aa(lp54
L134L
ag31
aaa(lp55
(lp56
L1L
aVCelebrations
p57
aa(lp58
L12L
ag57
aa(lp59
L16L
ag57
aa(lp60
L18L
ag57
aa(lp61
L19L
ag57
aa(lp62
L21L
ag57
aa(lp63
L23L
ag57
aa(lp64
L27L
ag57
aa(lp65
L32L
ag57
aa(lp66
L33L
ag57
aa(lp67
L35L
ag57
aa(lp68
L36L
ag57
aa(lp69
L37L
ag57
aa(lp70
L39L
ag57
aa(lp71
L103L
ag57
aa(lp72
L41L
ag57
aa(lp73
L42L
ag57
aa(lp74
L85L
ag57
aa(lp75
L51L
ag57
aa(lp76
L52L
ag57
aa(lp77
L54L
ag57
aa(lp78
L55L
ag57
aa(lp79
L56L
ag57
aa(lp80
L57L
ag57
aa(lp81
L58L
ag57
aa(lp82
L59L
ag57
aa(lp83
L60L
ag57
aa(lp84
L63L
ag57
aa(lp85
L65L
ag57
aa(lp86
L66L
ag57
aa(lp87
L67L
ag57
aa(lp88
L70L
ag57
aa(lp89
L71L
ag57
aa(lp90
L72L
ag57
aa(lp91
L74L
ag57
aa(lp92
L77L
ag57
aa(lp93
L79L
ag57
aa(lp94
L81L
ag57
aa(lp95
L86L
ag57
aa(lp96
L88L
ag57
aa(lp97
L87L
ag57
aa(lp98
L92L
ag57
aa(lp99
L97L
ag57
aa(lp100
L98L
ag57
aa(lp101
L105L
ag57
aa(lp102
L110L
ag57
aa(lp103
L118L
ag57
aa(lp104
L119L
ag57
aa(lp105
L120L
ag57
aa(lp106
L121L
ag57
aa(lp107
L126L
ag57
aa(lp108
L127L
ag57
aa(lp109
L130L
ag57
aa(lp110
L134L
ag57
aa(lp111
L147L
ag57
aaa(lp112
(lp113
L82L
aVFun
p114
aa(lp115
L138L
ag114
aa(lp116
L137L
ag114
aa(lp117
L136L
ag114
aa(lp118
L104L
ag114
aa(lp119
L117L
ag114
aa(lp120
L124L
ag114
aa(lp121
L144L
ag114
aa(lp122
L139L
ag114
aa(lp123
L140L
ag114
aa(lp124
L141L
ag114
aa(lp125
L142L
ag114
aa(lp126
L145L
ag114
aa(lp127
L146L
ag114
aa(lp128
L148L
ag114
aa(lp129
L149L
ag114
aa(lp130
L150L
ag114
aa(lp131
L151L
ag114
aa(lp132
L152L
ag114
aa(lp133
L153L
ag114
aa(lp134
L154L
ag114
aaa(lp135
(lp136
L15L
aVCAR
p137
aa(lp138
L24L
ag137
aa(lp139
L29L
ag137
aa(lp140
L37L
ag137
aa(lp141
L43L
ag137
aa(lp142
L49L
ag137
aa(lp143
L52L
ag137
aa(lp144
L54L
ag137
aa(lp145
L61L
ag137
aa(lp146
L65L
ag137
aa(lp147
L69L
ag137
aa(lp148
L71L
ag137
aa(lp149
L89L
ag137
aa(lp150
L93L
ag137
aa(lp151
L95L
ag137
aa(lp152
L96L
ag137
aa(lp153
L97L
ag137
aa(lp154
L100L
ag137
aa(lp155
L106L
ag137
aa(lp156
L107L
ag137
aa(lp157
L108L
ag137
aa(lp158
L109L
ag137
aa(lp159
L110L
ag137
aa(lp160
L113L
ag137
aa(lp161
L112L
ag137
aa(lp162
L120L
ag137
aa(lp163
L122L
ag137
aa(lp164
L128L
ag137
aa(lp165
L129L
ag137
aa(lp166
L133L
ag137
aa(lp167
L134L
ag137
aa(lp168
L147L
ag137
aaa(lp169
(lp170
L7L
aVThe News
p171
aa(lp172
L8L
ag171
aa(lp173
L13L
ag171
aa(lp174
L15L
ag171
aa(lp175
L22L
ag171
aa(lp176
L26L
ag171
aa(lp177
L28L
ag171
aa(lp178
L29L
ag171
aa(lp179
L34L
ag171
aa(lp180
L40L
ag171
aa(lp181
L41L
ag171
aa(lp182
L43L
ag171
aa(lp183
L45L
ag171
aa(lp184
L54L
ag171
aa(lp185
L61L
ag171
aa(lp186
L64L
ag171
aa(lp187
L65L
ag171
aa(lp188
L67L
ag171
aa(lp189
L68L
ag171
aa(lp190
L69L
ag171
aa(lp191
L77L
ag171
aa(lp192
L78L
ag171
aa(lp193
L80L
ag171
aa(lp194
L135L
ag171
aa(lp195
L90L
ag171
aa(lp196
L89L
ag171
aa(lp197
L91L
ag171
aa(lp198
L92L
ag171
aa(lp199
L94L
ag171
aa(lp200
L96L
ag171
aa(lp201
L97L
ag171
aa(lp202
L99L
ag171
aa(lp203
L106L
ag171
aa(lp204
L110L
ag171
aa(lp205
L111L
ag171
aa(lp206
L113L
ag171
aa(lp207
L115L
ag171
aa(lp208
L116L
ag171
aa(lp209
L119L
ag171
aa(lp210
L120L
ag171
aa(lp211
L122L
ag171
aa(lp212
L127L
ag171
aa(lp213
L129L
ag171
aa(lp214
L130L
ag171
aa(lp215
L131L
ag171
aa(lp216
L133L
ag171
aa(lp217
L134L
ag171
aa(lp218
L147L
ag171
aaa(lp219
(lp220
L7L
aVQuestions
p221
aa(lp222
L8L
ag221
aa(lp223
L58L
ag221
aa(lp224
L61L
ag221
aa(lp225
L62L
ag221
aa(lp226
L64L
ag221
aa(lp227
L69L
ag221
aa(lp228
L74L
ag221
aa(lp229
L80L
ag221
aa(lp230
L81L
ag221
aa(lp231
L135L
ag221
aa(lp232
L84L
ag221
aa(lp233
L90L
ag221
aa(lp234
L91L
ag221
aa(lp235
L88L
ag221
aa(lp236
L92L
ag221
aa(lp237
L94L
ag221
aa(lp238
L99L
ag221
aa(lp239
L108L
ag221
aa(lp240
L115L
ag221
aa(lp241
L120L
ag221
aa(lp242
L121L
ag221
aa(lp243
L130L
ag221
aa(lp244
L131L
ag221
aa(lp245
L132L
ag221
aaa(lp246
(lp247
L12L
aVConcerts
p248
aa(lp249
L56L
ag248
aa(lp250
L58L
ag248
aa(lp251
L59L
ag248
aa(lp252
L60L
ag248
aa(lp253
L87L
ag248
aaa(lp254
(lp255
L10L
aVPop Music
p256
aa(lp257
L12L
ag256
aa(lp258
L15L
ag256
aa(lp259
L18L
ag256
aa(lp260
L23L
ag256
aa(lp261
L32L
ag256
aa(lp262
L33L
ag256
aa(lp263
L35L
ag256
aa(lp264
L36L
ag256
aa(lp265
L37L
ag256
aa(lp266
L42L
ag256
aa(lp267
L52L
ag256
aa(lp268
L54L
ag256
aa(lp269
L55L
ag256
aa(lp270
L56L
ag256
aa(lp271
L58L
ag256
aa(lp272
L59L
ag256
aa(lp273
L60L
ag256
aa(lp274
L66L
ag256
aa(lp275
L67L
ag256
aa(lp276
L70L
ag256
aa(lp277
L72L
ag256
aa(lp278
L79L
ag256
aa(lp279
L80L
ag256
aa(lp280
L88L
ag256
aa(lp281
L87L
ag256
aa(lp282
L99L
ag256
aa(lp283
L105L
ag256
aa(lp284
L114L
ag256
aa(lp285
L116L
ag256
aa(lp286
L126L
ag256
aa(lp287
L127L
ag256
aaa(lp288
(lp289
L25L
aVPredictions
p290
aa(lp291
L64L
ag290
aa(lp292
L94L
ag290
aaa(lp293
(lp294
L125L
aVPhotography
p295
aa(lp296
L87L
ag295
aa(lp297
L132L
ag295
aaa.