(lp1
(lp2
L5L
aViowa
p3
aa(lp4
L118L
ag3
aa(lp5
L145L
ag3
aa(lp6
L146L
ag3
aa(lp7
L95L
aVparse
p8
aa(lp9
L100L
ag8
aa(lp10
L93L
ag8
aa(lp11
L86L
aVphotos
p12
aa(lp13
L87L
ag12
aa(lp14
L86L
aVmy apartment
p15
aa(lp16
L120L
aVla times
p17
aa(lp18
L122L
ag17
aa(lp19
L133L
ag17
aa(lp20
L134L
ag17
aa(lp21
L147L
ag17
aa(lp22
L95L
aVtutorial
p23
aa(lp24
L93L
ag23
aa(lp25
L69L
ag23
aa(lp26
L100L
ag23
aa(lp27
L61L
ag23
aa(lp28
L49L
ag23
aa(lp29
L107L
ag23
aa(lp30
L112L
ag23
aa(lp31
L114L
ag23
aa(lp32
L128L
ag23
aa(lp33
L134L
ag23
aa(lp34
L95L
aVnietzsche
p35
aa(lp36
L95L
aVcode
p37
aa(lp38
L93L
ag37
aa(lp39
L69L
ag37
aa(lp40
L61L
ag37
aa(lp41
L49L
ag37
aa(lp42
L103L
ag37
aa(lp43
L98L
ag37
aa(lp44
L100L
ag37
aa(lp45
L107L
ag37
aa(lp46
L109L
ag37
aa(lp47
L112L
ag37
aa(lp48
L114L
ag37
aa(lp49
L126L
ag37
aa(lp50
L128L
ag37
aa(lp51
L134L
ag37
aa(lp52
L95L
aVpython
p53
aa(lp54
L93L
ag53
aa(lp55
L103L
ag53
aa(lp56
L100L
ag53
aa(lp57
L107L
ag53
aa(lp58
L109L
ag53
aa(lp59
L112L
ag53
aa(lp60
L122L
ag53
aa(lp61
L126L
ag53
aa(lp62
L129L
ag53
aa(lp63
L147L
ag53
aa(lp64
L95L
aVcomputer-assisted reporting
p65
aa(lp66
L93L
ag65
aa(lp67
L5L
ag65
aa(lp68
L69L
ag65
aa(lp69
L100L
ag65
aa(lp70
L49L
ag65
aa(lp71
L43L
ag65
aa(lp72
L107L
ag65
aa(lp73
L109L
ag65
aa(lp74
L128L
ag65
aa(lp75
L145L
ag65
aa(lp76
L146L
ag65
aa(lp77
L99L
aVguns
p78
aa(lp79
L95L
aVrecipe
p80
aa(lp81
L93L
ag80
aa(lp82
L100L
ag80
aa(lp83
L107L
ag80
aa(lp84
L109L
ag80
aa(lp85
L112L
ag80
aa(lp86
L114L
ag80
aa(lp87
L128L
ag80
aa(lp88
L134L
ag80
aa(lp89
L95L
aVscript
p90
aa(lp91
L93L
ag90
aa(lp92
L69L
ag90
aa(lp93
L61L
ag90
aa(lp94
L49L
ag90
aa(lp95
L100L
ag90
aa(lp96
L96L
ag90
aa(lp97
L107L
ag90
aa(lp98
L112L
ag90
aa(lp99
L95L
aVlinux
p100
aa(lp101
L93L
ag100
aa(lp102
L100L
ag100
aa(lp103
L103L
ag100
aa(lp104
L107L
ag100
aa(lp105
L114L
ag100
aa(lp106
L128L
ag100
aa(lp107
L99L
aVbitterness
p108
aa(lp109
L81L
aVsam zell
p110
aa(lp111
L135L
ag110
aa(lp112
L93L
aVshakespeare
p113
aa(lp114
L95L
aVregular expressions
p115
aa(lp116
L93L
ag115
aa(lp117
L100L
ag115
aa(lp118
L95L
aVregex
p119
aa(lp120
L93L
ag119
aa(lp121
L100L
ag119
aa(lp122
L94L
aVcesar chavez
p123
aa(lp124
L94L
aVmartin luther king
p125
aa(lp126
L91L
ag125
aa(lp127
L89L
ag125
aa(lp128
L99L
aVjohn mccain
p129
aa(lp130
L94L
ag129
aa(lp131
L94L
aVbarack obama
p132
aa(lp133
L92L
ag132
aa(lp134
L91L
ag132
aa(lp135
L89L
ag132
aa(lp136
L99L
ag132
aa(lp137
L113L
ag132
aa(lp138
L116L
ag132
aa(lp139
L94L
aVholiday
p140
aa(lp141
L94L
aVpolitics
p142
aa(lp143
L89L
ag142
aa(lp144
L65L
ag142
aa(lp145
L61L
ag142
aa(lp146
L43L
ag142
aa(lp147
L40L
ag142
aa(lp148
L29L
ag142
aa(lp149
L28L
ag142
aa(lp150
L22L
ag142
aa(lp151
L99L
ag142
aa(lp152
L77L
ag142
aa(lp153
L96L
ag142
aa(lp154
L94L
aV2008 election
p155
aa(lp156
L91L
ag155
aa(lp157
L89L
ag155
aa(lp158
L99L
ag155
aa(lp159
L92L
ag155
aa(lp160
L77L
ag155
aa(lp161
L28L
ag155
aa(lp162
L113L
ag155
aa(lp163
L92L
aVfreedom of information act
p164
aa(lp165
L92L
aVfoia
p166
aa(lp167
L92L
aVpassport
p168
aa(lp169
L92L
aVstate department
p170
aa(lp171
L80L
aVblack disciples
p172
aa(lp173
L85L
aVBooks
p174
aa(lp175
L95L
ag174
aa(lp176
L93L
ag174
aa(lp177
L100L
ag174
aa(lp178
L64L
ag174
aa(lp179
L53L
ag174
aa(lp180
L43L
ag174
aa(lp181
L40L
ag174
aa(lp182
L39L
ag174
aa(lp183
L27L
ag174
aa(lp184
L15L
ag174
aa(lp185
L91L
aVjeremiah wright
p186
aa(lp187
L113L
ag186
aa(lp188
L91L
aVrhetoric
p189
aa(lp190
L89L
ag189
aa(lp191
L54L
ag189
aa(lp192
L40L
ag189
aa(lp193
L39L
ag189
aa(lp194
L91L
aVreligion
p195
aa(lp196
L40L
ag195
aa(lp197
L99L
ag195
aa(lp198
L108L
ag195
aa(lp199
L91L
aVblack history
p200
aa(lp201
L89L
ag200
aa(lp202
L90L
aVspanish
p203
aa(lp204
L90L
aVmexico
p205
aa(lp206
L122L
ag205
aa(lp207
L90L
aVimmigration
p208
aa(lp209
L74L
aVtribune company
p210
aa(lp211
L81L
ag210
aa(lp212
L135L
ag210
aa(lp213
L65L
aVmedia
p214
aa(lp215
L90L
ag214
aa(lp216
L80L
ag214
aa(lp217
L77L
ag214
aa(lp218
L71L
ag214
aa(lp219
L53L
ag214
aa(lp220
L45L
ag214
aa(lp221
L43L
ag214
aa(lp222
L41L
ag214
aa(lp223
L40L
ag214
aa(lp224
L28L
ag214
aa(lp225
L26L
ag214
aa(lp226
L17L
ag214
aa(lp227
L68L
ag214
aa(lp228
L15L
ag214
aa(lp229
L7L
ag214
aa(lp230
L99L
ag214
aa(lp231
L78L
ag214
aa(lp232
L69L
ag214
aa(lp233
L98L
ag214
aa(lp234
L97L
ag214
aa(lp235
L94L
ag214
aa(lp236
L92L
ag214
aa(lp237
L8L
ag214
aa(lp238
L37L
ag214
aa(lp239
L34L
ag214
aa(lp240
L106L
ag214
aa(lp241
L113L
ag214
aa(lp242
L129L
ag214
aa(lp243
L135L
ag214
aa(lp244
L90L
aVlos angeles
p245
aa(lp246
L87L
ag245
aa(lp247
L71L
ag245
aa(lp248
L63L
ag245
aa(lp249
L5L
ag245
aa(lp250
L98L
ag245
aa(lp251
L86L
ag245
aa(lp252
L76L
ag245
aa(lp253
L94L
ag245
aa(lp254
L57L
ag245
aa(lp255
L110L
ag245
aa(lp256
L120L
ag245
aa(lp257
L125L
ag245
aa(lp258
L132L
ag245
aa(lp259
L145L
ag245
aa(lp260
L146L
ag245
aa(lp261
L89L
aVrace
p262
aa(lp263
L92L
ag262
aa(lp264
L89L
aVdata visualization
p265
aa(lp266
L96L
ag265
aa(lp267
L45L
ag265
aa(lp268
L54L
ag265
aa(lp269
L37L
ag265
aa(lp270
L34L
ag265
aa(lp271
L108L
ag265
aa(lp272
L110L
ag265
aa(lp273
L113L
ag265
aa(lp274
L133L
ag265
aa(lp275
L134L
ag265
aa(lp276
L88L
aVhip-hop
p277
aa(lp278
L70L
ag277
aa(lp279
L10L
ag277
aa(lp280
L126L
ag277
aa(lp281
L88L
aVmusic
p282
aa(lp283
L87L
ag282
aa(lp284
L80L
ag282
aa(lp285
L79L
ag282
aa(lp286
L72L
ag282
aa(lp287
L70L
ag282
aa(lp288
L66L
ag282
aa(lp289
L60L
ag282
aa(lp290
L59L
ag282
aa(lp291
L56L
ag282
aa(lp292
L55L
ag282
aa(lp293
L54L
ag282
aa(lp294
L52L
ag282
aa(lp295
L37L
ag282
aa(lp296
L36L
ag282
aa(lp297
L35L
ag282
aa(lp298
L32L
ag282
aa(lp299
L23L
ag282
aa(lp300
L18L
ag282
aa(lp301
L15L
ag282
aa(lp302
L10L
ag282
aa(lp303
L98L
ag282
aa(lp304
L97L
ag282
aa(lp305
L74L
ag282
aa(lp306
L58L
ag282
aa(lp307
L42L
ag282
aa(lp308
L12L
ag282
aa(lp309
L33L
ag282
aa(lp310
L26L
ag282
aa(lp311
L105L
ag282
aa(lp312
L114L
ag282
aa(lp313
L127L
ag282
aa(lp314
L88L
aVhumor
p315
aa(lp316
L80L
ag315
aa(lp317
L99L
ag315
aa(lp318
L20L
ag315
aa(lp319
L85L
ag315
aa(lp320
L84L
ag315
aa(lp321
L81L
ag315
aa(lp322
L78L
ag315
aa(lp323
L77L
ag315
aa(lp324
L74L
ag315
aa(lp325
L68L
ag315
aa(lp326
L51L
ag315
aa(lp327
L62L
ag315
aa(lp328
L25L
ag315
aa(lp329
L10L
ag315
aa(lp330
L4L
ag315
aa(lp331
L54L
ag315
aa(lp332
L24L
ag315
aa(lp333
L22L
ag315
aa(lp334
L19L
ag315
aa(lp335
L115L
ag315
aa(lp336
L118L
ag315
aa(lp337
L119L
ag315
aa(lp338
L121L
ag315
aa(lp339
L126L
ag315
aa(lp340
L88L
aVpete rock
p341
aa(lp342
L32L
ag341
aa(lp343
L88L
aVjoan benetar
p344
aa(lp345
L87L
aVdowntown los angeles
p346
aa(lp347
L98L
ag346
aa(lp348
L86L
ag346
aa(lp349
L125L
ag346
aa(lp350
L132L
ag346
aa(lp351
L87L
aVwashington dc
p352
aa(lp353
L71L
ag352
aa(lp354
L65L
ag352
aa(lp355
L56L
ag352
aa(lp356
L24L
ag352
aa(lp357
L13L
ag352
aa(lp358
L63L
ag352
aa(lp359
L60L
ag352
aa(lp360
L37L
ag352
aa(lp361
L25L
ag352
aa(lp362
L5L
ag352
aa(lp363
L59L
ag352
aa(lp364
L58L
ag352
aa(lp365
L51L
ag352
aa(lp366
L21L
ag352
aa(lp367
L20L
ag352
aa(lp368
L12L
ag352
aa(lp369
L145L
ag352
aa(lp370
L146L
ag352
aa(lp371
L80L
aVgang
p372
aa(lp373
L80L
aVcommercial
p374
aa(lp375
L96L
aVcongress
p376
aa(lp377
L28L
ag376
aa(lp378
L22L
ag376
aa(lp379
L5L
ag376
aa(lp380
L135L
ag376
aa(lp381
L145L
ag376
aa(lp382
L146L
ag376
aa(lp383
L96L
aVpetraeus
p384
aa(lp385
L96L
aVtestimony
p386
aa(lp387
L96L
aViraq
p388
aa(lp389
L8L
ag388
aa(lp390
L13L
ag388
aa(lp391
L7L
ag388
aa(lp392
L122L
ag388
aa(lp393
L96L
aViraq war
p394
aa(lp395
L13L
ag394
aa(lp396
L96L
aVmilitary
p397
aa(lp398
L8L
ag397
aa(lp399
L69L
ag397
aa(lp400
L7L
ag397
aa(lp401
L96L
aVdata
p402
aa(lp403
L69L
ag402
aa(lp404
L5L
ag402
aa(lp405
L114L
ag402
aa(lp406
L120L
ag402
aa(lp407
L122L
ag402
aa(lp408
L145L
ag402
aa(lp409
L146L
ag402
aa(lp410
L147L
ag402
aa(lp411
L96L
aVword cloud
p412
aa(lp413
L77L
ag412
aa(lp414
L54L
ag412
aa(lp415
L113L
ag412
aa(lp416
L133L
ag412
aa(lp417
L97L
aVweb
p418
aa(lp419
L85L
ag418
aa(lp420
L84L
ag418
aa(lp421
L81L
ag418
aa(lp422
L78L
ag418
aa(lp423
L77L
ag418
aa(lp424
L76L
ag418
aa(lp425
L74L
ag418
aa(lp426
L69L
ag418
aa(lp427
L95L
ag418
aa(lp428
L94L
ag418
aa(lp429
L93L
ag418
aa(lp430
L90L
ag418
aa(lp431
L88L
ag418
aa(lp432
L80L
ag418
aa(lp433
L70L
ag418
aa(lp434
L67L
ag418
aa(lp435
L61L
ag418
aa(lp436
L54L
ag418
aa(lp437
L45L
ag418
aa(lp438
L42L
ag418
aa(lp439
L36L
ag418
aa(lp440
L15L
ag418
aa(lp441
L5L
ag418
aa(lp442
L4L
ag418
aa(lp443
L37L
ag418
aa(lp444
L34L
ag418
aa(lp445
L106L
ag418
aa(lp446
L107L
ag418
aa(lp447
L115L
ag418
aa(lp448
L121L
ag418
aa(lp449
L122L
ag418
aa(lp450
L145L
ag418
aa(lp451
L146L
ag418
aa(lp452
L97L
aVIran
p453
aa(lp454
L96L
ag453
aa(lp455
L97L
aVvideo
p456
aa(lp457
L69L
ag456
aa(lp458
L5L
ag456
aa(lp459
L119L
ag456
aa(lp460
L120L
ag456
aa(lp461
L127L
ag456
aa(lp462
L145L
ag456
aa(lp463
L146L
ag456
aa(lp464
L97L
aVBerkman Center
p465
aa(lp466
L43L
aVquantitative analysis
p467
aa(lp468
L97L
ag467
aa(lp469
L69L
ag467
aa(lp470
L77L
ag467
aa(lp471
L45L
ag467
aa(lp472
L61L
ag467
aa(lp473
L29L
ag467
aa(lp474
L54L
ag467
aa(lp475
L39L
ag467
aa(lp476
L108L
ag467
aa(lp477
L110L
ag467
aa(lp478
L113L
ag467
aa(lp479
L96L
ag467
aa(lp480
L97L
aVSocial Networking
p481
aa(lp482
L99L
aVpolitical scandal
p483
aa(lp484
L98L
aVclassical
p485
aa(lp486
L98L
aVbeethoven
p487
aa(lp488
L98L
aVandras schiff
p489
aa(lp490
L98L
aVdisney hall
p491
aa(lp492
L99L
aVpoll
p493
aa(lp494
L108L
ag493
aa(lp495
L115L
ag493
aa(lp496
L130L
ag493
aa(lp497
L85L
aVtv
p498
aa(lp499
L67L
ag498
aa(lp500
L57L
ag498
aa(lp501
L5L
ag498
aa(lp502
L145L
ag498
aa(lp503
L146L
ag498
aa(lp504
L77L
aVmy life
p505
aa(lp506
L76L
ag505
aa(lp507
L66L
ag505
aa(lp508
L55L
ag505
aa(lp509
L52L
ag505
aa(lp510
L45L
ag505
aa(lp511
L41L
ag505
aa(lp512
L37L
ag505
aa(lp513
L35L
ag505
aa(lp514
L103L
ag505
aa(lp515
L98L
ag505
aa(lp516
L92L
ag505
aa(lp517
L87L
ag505
aa(lp518
L86L
ag505
aa(lp519
L84L
ag505
aa(lp520
L74L
ag505
aa(lp521
L72L
ag505
aa(lp522
L71L
ag505
aa(lp523
L65L
ag505
aa(lp524
L60L
ag505
aa(lp525
L63L
ag505
aa(lp526
L51L
ag505
aa(lp527
L42L
ag505
aa(lp528
L40L
ag505
aa(lp529
L39L
ag505
aa(lp530
L34L
ag505
aa(lp531
L27L
ag505
aa(lp532
L25L
ag505
aa(lp533
L1L
ag505
aa(lp534
L10L
ag505
aa(lp535
L15L
ag505
aa(lp536
L4L
ag505
aa(lp537
L53L
ag505
aa(lp538
L36L
ag505
aa(lp539
L33L
ag505
aa(lp540
L32L
ag505
aa(lp541
L23L
ag505
aa(lp542
L13L
ag505
aa(lp543
L12L
ag505
aa(lp544
L110L
ag505
aa(lp545
L114L
ag505
aa(lp546
L120L
ag505
aa(lp547
L121L
ag505
aa(lp548
L122L
ag505
aa(lp549
L125L
ag505
aa(lp550
L132L
ag505
aa(lp551
L134L
ag505
aa(lp552
L90L
aVlos angeles times
p553
aa(lp554
L81L
ag553
aa(lp555
L77L
ag553
aa(lp556
L74L
ag553
aa(lp557
L71L
ag553
aa(lp558
L5L
ag553
aa(lp559
L110L
ag553
aa(lp560
L111L
ag553
aa(lp561
L120L
ag553
aa(lp562
L122L
ag553
aa(lp563
L130L
ag553
aa(lp564
L134L
ag553
aa(lp565
L145L
ag553
aa(lp566
L146L
ag553
aa(lp567
L147L
ag553
aa(lp568
L84L
aVcorporations
p569
aa(lp570
L84L
aVemail
p571
aa(lp572
L95L
ag571
aa(lp573
L93L
ag571
aa(lp574
L81L
ag571
aa(lp575
L80L
ag571
aa(lp576
L77L
ag571
aa(lp577
L70L
ag571
aa(lp578
L6L
ag571
aa(lp579
L67L
aVadvertising
p580
aa(lp581
L84L
ag580
aa(lp582
L80L
ag580
aa(lp583
L115L
ag580
aa(lp584
L131L
ag580
aa(lp585
L81L
aVcensorship
p586
aa(lp587
L78L
ag586
aa(lp588
L74L
ag586
aa(lp589
L121L
ag586
aa(lp590
L79L
aVgoldfrapp
p591
aa(lp592
L35L
ag591
aa(lp593
L79L
aValison goldfrapp
p594
aa(lp595
L79L
aVwil gregory
p596
aa(lp597
L79L
aVseven trees
p598
aa(lp599
L79L
aVa&amp;e
p600
aa(lp601
L69L
aVthe weekly standard
p602
aa(lp603
L79L
aV2008 music releases
p604
aa(lp605
L61L
aVblog
p606
aa(lp607
L69L
ag606
aa(lp608
L76L
aVonline shopping
p609
aa(lp610
L76L
aVmoney
p611
aa(lp612
L108L
ag611
aa(lp613
L76L
aVbusiness
p614
aa(lp615
L81L
ag614
aa(lp616
L36L
ag614
aa(lp617
L131L
ag614
aa(lp618
L135L
ag614
aa(lp619
L72L
aVranking
p620
aa(lp621
L69L
ag620
aa(lp622
L97L
ag620
aa(lp623
L61L
ag620
aa(lp624
L35L
ag620
aa(lp625
L32L
ag620
aa(lp626
L23L
ag620
aa(lp627
L107L
ag620
aa(lp628
L70L
aV2007 music releases
p629
aa(lp630
L66L
ag629
aa(lp631
L58L
ag629
aa(lp632
L72L
ag629
aa(lp633
L60L
ag629
aa(lp634
L55L
ag629
aa(lp635
L59L
ag629
aa(lp636
L56L
ag629
aa(lp637
L71L
aVcenter for public integrity
p638
aa(lp639
L5L
ag638
aa(lp640
L145L
ag638
aa(lp641
L146L
ag638
aa(lp642
L70L
aVmashup
p643
aa(lp644
L120L
ag643
aa(lp645
L70L
aVmark vidler
p646
aa(lp647
L70L
aVgo home productions
p648
aa(lp649
L72L
ag648
aa(lp650
L55L
ag648
aa(lp651
L23L
ag648
aa(lp652
L70L
aVbastard pop
p653
aa(lp654
L69L
aVperl
p655
aa(lp656
L61L
ag655
aa(lp657
L107L
ag655
aa(lp658
L114L
ag655
aa(lp659
L80L
aVchicago
p660
aa(lp661
L5L
ag660
aa(lp662
L26L
ag660
aa(lp663
L41L
ag660
aa(lp664
L145L
ag660
aa(lp665
L146L
ag660
aa(lp666
L80L
aVmusic video
p667
aa(lp668
L79L
ag667
aa(lp669
L60L
ag667
aa(lp670
L127L
ag667
aa(lp671
L80L
aVcha cha slide
p672
aa(lp673
L80L
aVm.o.b. records
p674
aa(lp675
L80L
aVgangster disciples
p676
aa(lp677
L80L
aVbd's
p678
aa(lp679
L80L
aVgd's
p680
aa(lp681
L80L
aVchicago gangs
p682
aa(lp683
L80L
aVpatrick fitzgerald
p684
aa(lp685
L80L
aVindictment
p686
aa(lp687
L80L
aVgang connection
p688
aa(lp689
L79L
aVkate bush
p690
aa(lp691
L79L
aVcloudbusting
p692
aa(lp693
L78L
aVlas vegas sun
p694
aa(lp695
L76L
aVcars
p696
aa(lp697
L71L
aVmoving
p698
aa(lp699
L71L
aVnew job
p700
aa(lp701
L70L
aVdj
p702
aa(lp703
L68L
aVwall street journal
p704
aa(lp705
L68L
aVbeer pong
p706
aa(lp707
L68L
aVinformation graphics
p708
aa(lp709
L68L
aVrupert murdoch
p710
aa(lp711
L67L
aVtony wilson
p712
aa(lp713
L67L
aVbbc
p714
aa(lp715
L67L
aVobituary
p716
aa(lp717
L111L
ag716
aa(lp718
L122L
ag716
aa(lp719
L133L
ag716
aa(lp720
L67L
aVfactory records
p721
aa(lp722
L67L
aV24 hour party people
p723
aa(lp724
L67L
aVMovies
p725
aa(lp726
L17L
ag725
aa(lp727
L16L
ag725
aa(lp728
L63L
ag725
aa(lp729
L62L
ag725
aa(lp730
L21L
ag725
aa(lp731
L13L
ag725
aa(lp732
L57L
ag725
aa(lp733
L105L
ag725
aa(lp734
L108L
ag725
aa(lp735
L67L
aVsteve coogan
p736
aa(lp737
L67L
aVnew order
p738
aa(lp739
L36L
ag738
aa(lp740
L67L
aVsex pistols
p741
aa(lp742
L67L
aVjoy division
p743
aa(lp744
L67L
aVhappy mondays
p745
aa(lp746
L67L
aVanthony wilson
p747
aa(lp748
L67L
aVbiopic
p749
aa(lp750
L67L
aVbiography
p751
aa(lp752
L67L
aVfictionalization
p753
aa(lp754
L66L
aVpoplife
p755
aa(lp756
L55L
ag755
aa(lp757
L66L
aVdragonette
p758
aa(lp759
L66L
aVsimian mobile disco
p760
aa(lp761
L66L
aVcut copy
p762
aa(lp763
L66L
aVmatthew dear
p764
aa(lp765
L66L
aVthe clientele
p766
aa(lp767
L72L
ag766
aa(lp768
L59L
ag766
aa(lp769
L66L
aVeddy la gooyatsh
p770
aa(lp771
L66L
aVkylie minogue
p772
aa(lp773
L72L
ag772
aa(lp774
L23L
ag772
aa(lp775
L66L
aVyann tiersen
p776
aa(lp777
L60L
aVelectro
p778
aa(lp779
L56L
ag778
aa(lp780
L65L
aVshawington
p781
aa(lp782
L106L
ag781
aa(lp783
L65L
aVblogs
p784
aa(lp785
L1L
ag784
aa(lp786
L15L
ag784
aa(lp787
L37L
ag784
aa(lp788
L106L
ag784
aa(lp789
L65L
aVaggregator
p790
aa(lp791
L106L
ag790
aa(lp792
L65L
aVplanet planet
p793
aa(lp794
L65L
aVplanet venus
p795
aa(lp796
L106L
ag795
aa(lp797
L65L
aVshawington.com
p798
aa(lp799
L65L
aVshaw dc
p800
aa(lp801
L65L
aVshaw
p802
aa(lp803
L65L
aVmount vernon square
p804
aa(lp805
L64L
aVchina
p806
aa(lp807
L64L
aV2008 summer olympics
p808
aa(lp809
L64L
aVhuman rights
p810
aa(lp811
L64L
aVprotest
p812
aa(lp813
L22L
aVhistory
p814
aa(lp815
L64L
ag814
aa(lp816
L103L
ag814
aa(lp817
L135L
ag814
aa(lp818
L64L
aVforeign policy
p819
aa(lp820
L72L
aVapparat
p821
aa(lp822
L35L
ag821
aa(lp823
L72L
aVcaribou
p824
aa(lp825
L72L
aValbums
p826
aa(lp827
L32L
ag826
aa(lp828
L35L
ag826
aa(lp829
L72L
aVgo home production
p830
aa(lp831
L72L
aVprins thomas
p832
aa(lp833
L72L
aVrokysopp
p834
aa(lp835
L72L
aVjay dee
p836
aa(lp837
L72L
aVpharcyde
p838
aa(lp839
L72L
aVbebel gilberto
p840
aa(lp841
L72L
aVthe modernist
p842
aa(lp843
L55L
aVlcd soundsystem
p844
aa(lp845
L60L
ag844
aa(lp846
L72L
ag844
aa(lp847
L72L
aVtobias thomas
p848
aa(lp849
L72L
aVellen allien
p850
aa(lp851
L35L
ag850
aa(lp852
L72L
aVdevin the dude
p853
aa(lp854
L55L
ag853
aa(lp855
L72L
aVbookashade
p856
aa(lp857
L72L
aVthe field
p858
aa(lp859
L72L
aVradiohead
p860
aa(lp861
L72L
aVjunior senior
p862
aa(lp863
L65L
aVmartin moulton
p864
aa(lp865
L64L
aVjames mann
p866
aa(lp867
L63L
aVblack and white movies
p868
aa(lp869
L63L
aVwatts
p870
aa(lp871
L63L
aVe street cinema
p872
aa(lp873
L57L
ag872
aa(lp874
L13L
ag872
aa(lp875
L63L
aVblack cinema
p876
aa(lp877
L63L
aVkiller of sheep
p878
aa(lp879
L63L
aVcharles burnett
p880
aa(lp881
L63L
aVdinah washington
p882
aa(lp883
L63L
aVthis bitter earth
p884
aa(lp885
L62L
aVwoody allen
p886
aa(lp887
L19L
ag886
aa(lp888
L62L
aVsam raimi
p889
aa(lp890
L62L
aVspiderman 3
p891
aa(lp892
L62L
aVannie hall
p893
aa(lp894
L62L
aVmanhattan
p895
aa(lp896
L61L
aVcomputer-assisted report
p897
aa(lp898
L61L
aVtalking points memo
p899
aa(lp900
L61L
aVtpm muckraker
p901
aa(lp902
L58L
aVconcert
p903
aa(lp904
L59L
ag903
aa(lp905
L60L
ag903
aa(lp906
L12L
ag903
aa(lp907
L56L
ag903
aa(lp908
L60L
aVreview
p909
aa(lp910
L60L
aV930 club
p911
aa(lp912
L56L
ag911
aa(lp913
L12L
aVblack cat
p914
aa(lp915
L59L
ag914
aa(lp916
L59L
aVconcert review
p917
aa(lp918
L58L
ag917
aa(lp919
L12L
ag917
aa(lp920
L56L
ag917
aa(lp921
L59L
aVfelt
p922
aa(lp923
L59L
aVfield mice
p924
aa(lp925
L59L
aVgalaxie 500
p926
aa(lp927
L59L
aVrock
p928
aa(lp929
L58L
ag928
aa(lp930
L55L
aVcompliation
p931
aa(lp932
L66L
ag931
aa(lp933
L33L
ag931
aa(lp934
L58L
aVarcade fire
p935
aa(lp936
L55L
ag935
aa(lp937
L54L
ag935
aa(lp938
L58L
aVthe national
p939
aa(lp940
L58L
aVdar constitution hall
p941
aa(lp942
L57L
aVmovie
p943
aa(lp944
L19L
ag943
aa(lp945
L57L
aVthe tv set
p946
aa(lp947
L57L
aVDavid Duchovny
p948
aa(lp949
L57L
aVsatire
p950
aa(lp951
L57L
aVhollywood
p952
aa(lp953
L57L
aVSigourney Weaver
p954
aa(lp955
L56L
aVhot chip
p956
aa(lp957
L56L
aVkraftwerk
p958
aa(lp959
L56L
aVministry
p960
aa(lp961
L56L
aVkmfdm
p962
aa(lp963
L55L
aVsophie ellis bextor
p964
aa(lp965
L55L
aVsnoop dogg
p966
aa(lp967
L55L
aVandre 3000
p968
aa(lp969
L55L
aVthe ark
p970
aa(lp971
L55L
aVmadonna
p972
aa(lp973
L18L
aVmusic criticism
p974
aa(lp975
L54L
ag974
aa(lp976
L36L
ag974
aa(lp977
L45L
aVwidget
p978
aa(lp979
L52L
ag978
aa(lp980
L42L
ag978
aa(lp981
L34L
ag978
aa(lp982
L53L
ag978
aa(lp983
L53L
aVshelfari
p984
aa(lp985
L52L
aVlast.fm
p986
aa(lp987
L42L
ag986
aa(lp988
L114L
ag986
aa(lp989
L51L
aVlobbying
p990
aa(lp991
L49L
aVsql
p992
aa(lp993
L112L
ag992
aa(lp994
L49L
aVmicrosoft sql
p995
aa(lp996
L49L
aVmssql
p997
aa(lp998
L49L
aVfederal working days
p999
aa(lp1000
L49L
aVcalendar
p1001
aa(lp1002
L49L
aVdatabase
p1003
aa(lp1004
L134L
ag1003
aa(lp1005
L49L
aVworking days
p1006
aa(lp1007
L49L
aVholidays
p1008
aa(lp1009
L49L
aVfederal holidays
p1010
aa(lp1011
L45L
aVdel.icio.us
p1012
aa(lp1013
L34L
ag1012
aa(lp1014
L43L
aVgeorge w bush
p1015
aa(lp1016
L43L
aVkarl rove
p1017
aa(lp1018
L22L
aVwhite house
p1019
aa(lp1020
L43L
ag1019
aa(lp1021
L41L
aVsports
p1022
aa(lp1023
L39L
ag1022
aa(lp1024
L17L
ag1022
aa(lp1025
L41L
aVchicago bears
p1026
aa(lp1027
L41L
aVnew orleans saints
p1028
aa(lp1029
L41L
aVnfl football
p1030
aa(lp1031
L41L
aVespn
p1032
aa(lp1033
L40L
aVsteve weinberg
p1034
aa(lp1035
L40L
aValarmism
p1036
aa(lp1037
L40L
aVgeorge orwell
p1038
aa(lp1039
L40L
aVkevin phillips
p1040
aa(lp1041
L40L
aVchris hedges
p1042
aa(lp1043
L40L
aVann coulter
p1044
aa(lp1045
L40L
aVjonah goldberg
p1046
aa(lp1047
L40L
aVramesh ponnuru
p1048
aa(lp1049
L40L
aVdinesh d'souza
p1050
aa(lp1051
L40L
aVright wing
p1052
aa(lp1053
L40L
aVthe republican party
p1054
aa(lp1055
L40L
aVliberals
p1056
aa(lp1057
L39L
aVmajor league baseball
p1058
aa(lp1059
L39L
aVoakland a's
p1060
aa(lp1061
L39L
aVbilly beane
p1062
aa(lp1063
L39L
aVmichael lewis
p1064
aa(lp1065
L24L
aVmap
p1066
aa(lp1067
L37L
ag1066
aa(lp1068
L108L
ag1066
aa(lp1069
L120L
ag1066
aa(lp1070
L37L
aVmusic stores
p1071
aa(lp1072
L36L
ag1071
aa(lp1073
L37L
aVwonkette
p1074
aa(lp1075
L37L
aVdcist
p1076
aa(lp1077
L37L
aVcd warehouse
p1078
aa(lp1079
L37L
aVgoogle maps
p1080
aa(lp1081
L24L
ag1080
aa(lp1082
L36L
aVtower records
p1083
aa(lp1084
L36L
aVt-ski valley
p1085
aa(lp1086
L36L
aVthe misfits
p1087
aa(lp1088
L36L
aVthe diplomats
p1089
aa(lp1090
L36L
aVnouvelle vague
p1091
aa(lp1092
L35L
ag1091
aa(lp1093
L35L
aV2006 music releases
p1094
aa(lp1095
L33L
ag1094
aa(lp1096
L35L
aVthe similou
p1097
aa(lp1098
L35L
aVpipettes
p1099
aa(lp1100
L35L
aVbasement jaxx
p1101
aa(lp1102
L23L
ag1101
aa(lp1103
L35L
aVhussies
p1104
aa(lp1105
L35L
aVmerit larson
p1106
aa(lp1107
L35L
aVnelly furtado
p1108
aa(lp1109
L35L
aVlilly allen
p1110
aa(lp1111
L35L
aVbertine zetlitz
p1112
aa(lp1113
L35L
aVt.i.
p1114
aa(lp1115
L35L
aVewan pearson
p1116
aa(lp1117
L35L
aVneko case
p1118
aa(lp1119
L35L
aVcharlotte gainsbourg
p1120
aa(lp1121
L35L
aVdrive-by truckers
p1122
aa(lp1123
L35L
aVmylo
p1124
aa(lp1125
L35L
aVrichardo villalobos
p1126
aa(lp1127
L35L
aVlove is all
p1128
aa(lp1129
L33L
aVphpoplife
p1130
aa(lp1131
L32L
aV1990s
p1132
aa(lp1133
L23L
ag1132
aa(lp1134
L32L
aVpulp
p1135
aa(lp1136
L23L
ag1135
aa(lp1137
L32L
aVcl smooth
p1138
aa(lp1139
L32L
aVelastica
p1140
aa(lp1141
L32L
aVnas
p1142
aa(lp1143
L32L
aVmy bloody valentine
p1144
aa(lp1145
L32L
aVbelle and sebastian
p1146
aa(lp1147
L32L
aVfugazi
p1148
aa(lp1149
L32L
aVsaint etienne
p1150
aa(lp1151
L23L
ag1150
aa(lp1152
L32L
aVpet shop boys
p1153
aa(lp1154
L32L
aVwu-tang clan
p1155
aa(lp1156
L32L
aVprimal scream
p1157
aa(lp1158
L32L
aVblur
p1159
aa(lp1160
L32L
aVdaft punk
p1161
aa(lp1162
L23L
ag1161
aa(lp1163
L32L
aVboards of canada
p1164
aa(lp1165
L32L
aVyo la tengo
p1166
aa(lp1167
L23L
ag1166
aa(lp1168
L32L
aVjay-z
p1169
aa(lp1170
L23L
ag1169
aa(lp1171
L32L
aVklf
p1172
aa(lp1173
L32L
aVpaul westerberg
p1174
aa(lp1175
L29L
aVmissouri
p1176
aa(lp1177
L29L
aV2006 elections
p1178
aa(lp1179
L29L
aVU.S. senate
p1180
aa(lp1181
L29L
aVclaire mccaskill
p1182
aa(lp1183
L29L
aVjim talent
p1184
aa(lp1185
L29L
aVelection results
p1186
aa(lp1187
L28L
aVhillary clinton
p1188
aa(lp1189
L99L
ag1188
aa(lp1190
L116L
ag1188
aa(lp1191
L28L
aVthe atlantic
p1192
aa(lp1193
L28L
aVjoshua green
p1194
aa(lp1195
L27L
aVallan bloom
p1196
aa(lp1197
L27L
aVfrank rich
p1198
aa(lp1199
L27L
aVgeorge packer
p1200
aa(lp1201
L27L
aVthomas ricks
p1202
aa(lp1203
L27L
aVstuart dybek
p1204
aa(lp1205
L27L
aVphilip gourevitch
p1206
aa(lp1207
L27L
aVaugust kleinzahler
p1208
aa(lp1209
L27L
aVa.j. liebling
p1210
aa(lp1211
L27L
aVterry teachout
p1212
aa(lp1213
L27L
aVh.l. mencken
p1214
aa(lp1215
L27L
aVanthony shadid
p1216
aa(lp1217
L27L
aVRajiv Chandrasekaren
p1218
aa(lp1219
L27L
aVbenjamin kunkel
p1220
aa(lp1221
L26L
aVstop smiling
p1222
aa(lp1223
L26L
aVanne nocenti
p1224
aa(lp1225
L26L
aVjames hughes
p1226
aa(lp1227
L26L
aVethics
p1228
aa(lp1229
L26L
aVlaura dawn
p1230
aa(lp1231
L26L
aVmoveon.org
p1232
aa(lp1233
L25L
aVcommuting
p1234
aa(lp1235
L25L
aVsafety
p1236
aa(lp1237
L120L
ag1236
aa(lp1238
L24L
aVhappy hour
p1239
aa(lp1240
L24L
aValcohol
p1241
aa(lp1242
L23L
aV2000s
p1243
aa(lp1244
L23L
aVusher
p1245
aa(lp1246
L23L
aVnew radicals
p1247
aa(lp1248
L23L
aVstardust
p1249
aa(lp1250
L23L
aVmissy elliot
p1251
aa(lp1252
L23L
aVgirls aloud
p1253
aa(lp1254
L23L
aVgwen stefani
p1255
aa(lp1256
L23L
aVheiko voss
p1257
aa(lp1258
L23L
aVoutkast
p1259
aa(lp1260
L22L
aVwelfare
p1261
aa(lp1262
L22L
aVbill clinton
p1263
aa(lp1264
L22L
aVtom delay
p1265
aa(lp1266
L21L
aVsaudi arabia
p1267
aa(lp1268
L21L
aVlawrence of arabia
p1269
aa(lp1270
L21L
aVpeter o'toole
p1271
aa(lp1272
L21L
aVAFI center
p1273
aa(lp1274
L21L
aVsilver spring maryland
p1275
aa(lp1276
L21L
aVOmar Sharif
p1277
aa(lp1278
L20L
aVfrench food
p1279
aa(lp1280
L20L
aVBistro Francais
p1281
aa(lp1282
L19L
aVscoop
p1283
aa(lp1284
L19L
aVHugh Jackman
p1285
aa(lp1286
L19L
aVScarlett Johansson
p1287
aa(lp1288
L18L
aVthe killers
p1289
aa(lp1290
L18L
aVjacques lu cont
p1291
aa(lp1292
L18L
aVBrandon Flowers
p1293
aa(lp1294
L17L
aVnew york cosmos
p1295
aa(lp1296
L17L
aVsoccer
p1297
aa(lp1298
L16L
aVanimation
p1299
aa(lp1300
L16L
aVrotoscoping
p1301
aa(lp1302
L16L
aVrichard linklater
p1303
aa(lp1304
L16L
aVa scanner darkly
p1305
aa(lp1306
L16L
aVkeanu reeves
p1307
aa(lp1308
L16L
aVrobert downey jr
p1309
aa(lp1310
L13L
aVthe war tapes
p1311
aa(lp1312
L12L
aVjose gonzales
p1313
aa(lp1314
L10L
aVdel tha funkee homosapien
p1315
aa(lp1316
L126L
ag1315
aa(lp1317
L10L
aVsound opinions
p1318
aa(lp1319
L10L
aVradio
p1320
aa(lp1321
L10L
aVdr bombay
p1322
aa(lp1323
L10L
aVsummer
p1324
aa(lp1325
L7L
aVhaditha
p1326
aa(lp1327
L8L
ag1326
aa(lp1328
L8L
aVcrime
p1329
aa(lp1330
L7L
ag1329
aa(lp1331
L8L
aVTaher Thabet
p1332
aa(lp1333
L7L
ag1332
aa(lp1334
L8L
aVIslam
p1335
aa(lp1336
L8L
aVTime magazine
p1337
aa(lp1338
L7L
ag1337
aa(lp1339
L100L
aVtext
p1340
aa(lp1341
L95L
ag1340
aa(lp1342
L95L
aVcount
p1343
aa(lp1344
L100L
aVbible
p1345
aa(lp1346
L100L
aVfour-letter words
p1347
aa(lp1348
L93L
aVopen
p1349
aa(lp1350
L95L
ag1349
aa(lp1351
L100L
ag1349
aa(lp1352
L93L
aVread
p1353
aa(lp1354
L95L
ag1353
aa(lp1355
L100L
ag1353
aa(lp1356
L106L
ag1353
aa(lp1357
L95L
aVsearch
p1358
aa(lp1359
L93L
ag1358
aa(lp1360
L100L
ag1358
aa(lp1361
L93L
aVprint
p1362
aa(lp1363
L95L
ag1362
aa(lp1364
L100L
ag1362
aa(lp1365
L109L
ag1362
aa(lp1366
L93L
aVloop
p1367
aa(lp1368
L100L
ag1367
aa(lp1369
L95L
ag1367
aa(lp1370
L93L
aVmatch
p1371
aa(lp1372
L95L
ag1371
aa(lp1373
L100L
ag1371
aa(lp1374
L103L
aVbash
p1375
aa(lp1376
L128L
ag1375
aa(lp1377
L103L
aVcommon commands
p1378
aa(lp1379
L103L
aVhistory meme
p1380
aa(lp1381
L103L
aVMeme
p1382
aa(lp1383
L103L
aVawk
p1384
aa(lp1385
L103L
aVUbuntu
p1386
aa(lp1387
L114L
ag1386
aa(lp1388
L103L
aVubuntu linux
p1389
aa(lp1390
L103L
aVvim
p1391
aa(lp1392
L105L
aVjohnny boy
p1393
aa(lp1394
L105L
aVmean streets
p1395
aa(lp1396
L105L
aVbe my baby
p1397
aa(lp1398
L105L
aVthe ronettes
p1399
aa(lp1400
L105L
aVmartin scorsese
p1401
aa(lp1402
L105L
aVHarvey Keitel
p1403
aa(lp1404
L105L
aVyou are the generation that bought more shoes and you g
p1405
aa(lp1406
L105L
aVRobert DeNiro
p1407
aa(lp1408
L106L
aVnews.palewire.com
p1409
aa(lp1410
L106L
aVrss
p1411
aa(lp1412
L114L
ag1411
aa(lp1413
L129L
ag1411
aa(lp1414
L106L
aVfeeds
p1415
aa(lp1416
L106L
aVsyndication
p1417
aa(lp1418
L106L
aVsam ruby
p1419
aa(lp1420
L106L
aVwizz
p1421
aa(lp1422
L106L
aVnews media
p1423
aa(lp1424
L106L
aVpundits
p1425
aa(lp1426
L106L
aVnewspapers
p1427
aa(lp1428
L115L
ag1427
aa(lp1429
L121L
ag1427
aa(lp1430
L147L
ag1427
aa(lp1431
L107L
aVscrape
p1432
aa(lp1433
L107L
aVweb scrape
p1434
aa(lp1435
L107L
aVweb scraping
p1436
aa(lp1437
L107L
aVscreen scraping
p1438
aa(lp1439
L107L
aVmechanize
p1440
aa(lp1441
L107L
aVbeautiful soup
p1442
aa(lp1443
L107L
aVtable
p1444
aa(lp1445
L108L
aVleatherheads
p1446
aa(lp1447
L108L
aVexpelled
p1448
aa(lp1449
L108L
aVbox office
p1450
aa(lp1451
L108L
aVdocumentary
p1452
aa(lp1453
L108L
aVscience
p1454
aa(lp1455
L108L
aVcreationism
p1456
aa(lp1457
L108L
aVintelligent design
p1458
aa(lp1459
L108L
aVscatterplot
p1460
aa(lp1461
L109L
aVformatting
p1462
aa(lp1463
L109L
aVdate
p1464
aa(lp1465
L109L
aVformat
p1466
aa(lp1467
L109L
aVdatetime
p1468
aa(lp1469
L109L
aVtimedelta
p1470
aa(lp1471
L109L
aVsnippet
p1472
aa(lp1473
L109L
aVstrftime
p1474
aa(lp1475
L109L
aVdatediff
p1476
aa(lp1477
L110L
aVmany eyes
p1478
aa(lp1479
L113L
ag1478
aa(lp1480
L96L
ag1478
aa(lp1481
L110L
aVreal estate
p1482
aa(lp1483
L110L
aVcalifornia
p1484
aa(lp1485
L122L
ag1484
aa(lp1486
L110L
aVcaspio
p1487
aa(lp1488
L134L
ag1487
aa(lp1489
L110L
aVdata-driven web applications
p1490
aa(lp1491
L110L
aVincome
p1492
aa(lp1493
L111L
aVUranus J. "Bob" Appel
p1494
aa(lp1495
L107L
aVpython scraping tutorial
p1496
aa(lp1497
L113L
aVbill moyers
p1498
aa(lp1499
L113L
aVinterview
p1500
aa(lp1501
L113L
aVsermon
p1502
aa(lp1503
L113L
aV911
p1504
aa(lp1505
L113L
aVseptember 11
p1506
aa(lp1507
L113L
aVthe day of jerusalem's fall
p1508
aa(lp1509
L113L
aVtranscript
p1510
aa(lp1511
L95L
aVpython multiple files
p1512
aa(lp1513
L43L
aVreading list
p1514
aa(lp1515
L43L
aVcontest
p1516
aa(lp1517
L43L
aVwhat does george bush read
p1518
aa(lp1519
L43L
aVpresident bush
p1520
aa(lp1521
L114L
aVtwitter
p1522
aa(lp1523
L126L
ag1522
aa(lp1524
L112L
aVmysql
p1525
aa(lp1526
L112L
aVmysqldb
p1527
aa(lp1528
L112L
aVmysql for python
p1529
aa(lp1530
L112L
aVprint sql results
p1531
aa(lp1532
L114L
aVpost last.fm on twitter
p1533
aa(lp1534
L114L
aVshell
p1535
aa(lp1536
L115L
aVnew york times
p1537
aa(lp1538
L131L
ag1537
aa(lp1539
L115L
aVslate
p1540
aa(lp1541
L115L
aVwashington post
p1542
aa(lp1543
L116L
aVindiana
p1544
aa(lp1545
L116L
aVgary
p1546
aa(lp1547
L116L
aVgary indiana
p1548
aa(lp1549
L116L
aVobama
p1550
aa(lp1551
L116L
aVclinton
p1552
aa(lp1553
L116L
aV2008election
p1554
aa(lp1555
L116L
aVprimary
p1556
aa(lp1557
L116L
aVvote
p1558
aa(lp1559
L116L
aVmusical
p1560
aa(lp1561
L116L
aVmeredith wilson
p1562
aa(lp1563
L116L
aVthe music man
p1564
aa(lp1565
L116L
aVopie
p1566
aa(lp1567
L116L
aVlake county indiana
p1568
aa(lp1569
L116L
aVindiana primary results
p1570
aa(lp1571
L116L
aVindiana election
p1572
aa(lp1573
L116L
aVobama indiana
p1574
aa(lp1575
L49L
aVworking days sql
p1576
aa(lp1577
L49L
aVdetermine holiday in sql
p1578
aa(lp1579
L112L
aVpython query mysql database
p1580
aa(lp1581
L112L
aVmysqldb execute
p1582
aa(lp1583
L112L
aVhow to connect to a mysql database in python
p1584
aa(lp1585
L112L
aVpython mysql connection
p1586
aa(lp1587
L109L
aVpython future date
p1588
aa(lp1589
L107L
aVpython beautifulsoup table parse
p1590
aa(lp1591
L107L
aVhow to install module mechanize in python
p1592
aa(lp1593
L107L
aVpython extract html table
p1594
aa(lp1595
L95L
aVpython copy multiple files
p1596
aa(lp1597
L95L
aVopen files from directory in python
p1598
aa(lp1599
L95L
aVopening multi files python
p1600
aa(lp1601
L95L
aVmultiple open files python
p1602
aa(lp1603
L49L
aVcreating sql table with weekends and holidays
p1604
aa(lp1605
L119L
aVbill o'reilly
p1606
aa(lp1607
L118L
aVcedar rapids
p1608
aa(lp1609
L118L
aVt-shirt
p1610
aa(lp1611
L118L
aVmilton glaser
p1612
aa(lp1613
L118L
aVi heart new york
p1614
aa(lp1615
L118L
aVlogo
p1616
aa(lp1617
L118L
aVcedar rapids logo
p1618
aa(lp1619
L118L
aVcedar rapids t-shirt
p1620
aa(lp1621
L119L
aVbill
p1622
aa(lp1623
L119L
aVoreilly
p1624
aa(lp1625
L119L
aVringtone
p1626
aa(lp1627
L119L
aVdo it live
p1628
aa(lp1629
L119L
aVinside edition
p1630
aa(lp1631
L119L
aVrant
p1632
aa(lp1633
L119L
aVsting
p1634
aa(lp1635
L119L
aVyoutube
p1636
aa(lp1637
L127L
ag1636
aa(lp1638
L119L
aVbill o'reilly flips out
p1639
aa(lp1640
L119L
aViphone
p1641
aa(lp1642
L129L
ag1641
aa(lp1643
L119L
aVcell phone
p1644
aa(lp1645
L119L
aVfuck it
p1646
aa(lp1647
L119L
aVwe'll do it live
p1648
aa(lp1649
L119L
aVrecording
p1650
aa(lp1651
L119L
aVremix
p1652
aa(lp1653
L119L
aVfox news
p1654
aa(lp1655
L119L
aVcable news
p1656
aa(lp1657
L119L
aVmp3
p1658
aa(lp1659
L119L
aVMotorola
p1660
aa(lp1661
L120L
aVUnited States
p1662
aa(lp1663
L120L
aVGoogle
p1664
aa(lp1665
L147L
ag1664
aa(lp1666
L120L
aVRaoul Renoa
p1667
aa(lp1668
L120L
aVweb package
p1669
aa(lp1670
L120L
aVLos Angeles County
p1671
aa(lp1672
L120L
aVphoto enforcement systems
p1673
aa(lp1674
L120L
aVGPS
p1675
aa(lp1676
L120L
aVTomTom
p1677
aa(lp1678
L120L
aVGarmin
p1679
aa(lp1680
L120L
aVFlash
p1681
aa(lp1682
L120L
aVred light cameras
p1683
aa(lp1684
L120L
aVred light cams
p1685
aa(lp1686
L120L
aVredlight cameras
p1687
aa(lp1688
L120L
aVredlight cams
p1689
aa(lp1690
L120L
aVdownload
p1691
aa(lp1692
L128L
ag1691
aa(lp1693
L120L
aVgeocode
p1694
aa(lp1695
L120L
aVred lights
p1696
aa(lp1697
L120L
aVredlights
p1698
aa(lp1699
L120L
aVLA
p1700
aa(lp1701
L120L
aVgoogle map
p1702
aa(lp1703
L120L
aVRich Connell
p1704
aa(lp1705
L120L
aVlatimes
p1706
aa(lp1707
L130L
ag1706
aa(lp1708
L134L
ag1706
aa(lp1709
L120L
aVl a times
p1710
aa(lp1711
L122L
aVSan Diego
p1712
aa(lp1713
L121L
aVfilter
p1714
aa(lp1715
L121L
aVwebsense
p1716
aa(lp1717
L121L
aVsex
p1718
aa(lp1719
L131L
ag1718
aa(lp1720
L121L
aVsexy
p1721
aa(lp1722
L121L
aVbanned
p1723
aa(lp1724
L122L
aVJason J. Buzzard
p1725
aa(lp1726
L122L
aVAfghanistan
p1727
aa(lp1728
L122L
aVRafael Peralta
p1729
aa(lp1730
L122L
aVSouth Korea
p1731
aa(lp1732
L122L
aVMemorial Day
p1733
aa(lp1734
L122L
aVFallujah
p1735
aa(lp1736
L122L
aVRiverside Cemetery
p1737
aa(lp1738
L122L
aVChristopher Hitchens
p1739
aa(lp1740
L122L
aVChristopher D. Leon
p1741
aa(lp1742
L122L
aVMark J. Daily
p1743
aa(lp1744
L122L
aVTeresa Watanabe
p1745
aa(lp1746
L122L
aVWeb programming tools
p1747
aa(lp1748
L122L
aVlatimes.com
p1749
aa(lp1750
L122L
aVdjango
p1751
aa(lp1752
L129L
ag1751
aa(lp1753
L147L
ag1751
aa(lp1754
L122L
aVnicar
p1755
aa(lp1756
L122L
aVadrian holovaty
p1757
aa(lp1758
L147L
ag1757
aa(lp1759
L122L
aVnewspaper
p1760
aa(lp1761
L130L
ag1760
aa(lp1762
L122L
aVcasualty
p1763
aa(lp1764
L122L
aVwar
p1765
aa(lp1766
L122L
aVcomments
p1767
aa(lp1768
L125L
aVst. vibiana's
p1769
aa(lp1770
L125L
aVcathedral
p1771
aa(lp1772
L125L
aVarchdiocese
p1773
aa(lp1774
L125L
aVcaltrans
p1775
aa(lp1776
L125L
aVPhotography
p1777
aa(lp1778
L132L
ag1777
aa(lp1779
L125L
aVmy photos
p1780
aa(lp1781
L87L
ag1780
aa(lp1782
L125L
aVpanorama
p1783
aa(lp1784
L125L
aVhugin
p1785
aa(lp1786
L87L
aVJosh Taylor
p1787
aa(lp1788
L126L
aVStaind
p1789
aa(lp1790
L126L
aVDel
p1791
aa(lp1792
L126L
aVLyricsWiki
p1793
aa(lp1794
L126L
aVLyricWiki
p1795
aa(lp1796
L126L
aVlyrics
p1797
aa(lp1798
L126L
aVi wish my brother george was here
p1799
aa(lp1800
L126L
aVgithub
p1801
aa(lp1802
L126L
aVPop Music
p1803
aa(lp1804
L127L
ag1803
aa(lp1805
L126L
aVrap
p1806
aa(lp1807
L126L
aVSOAP
p1808
aa(lp1809
L126L
aVAPI
p1810
aa(lp1811
L147L
ag1810
aa(lp1812
L126L
aVmistadobalina
p1813
aa(lp1814
L126L
aV@hemingway
p1815
aa(lp1816
L127L
aVBo Diddley
p1817
aa(lp1818
L127L
aVRolling Stones
p1819
aa(lp1820
L127L
aVBo Diddley Beat
p1821
aa(lp1822
L127L
aVBruce Springsteen
p1823
aa(lp1824
L127L
aVThe Who
p1825
aa(lp1826
L127L
aVShe's The One
p1827
aa(lp1828
L127L
aVMagic Bus
p1829
aa(lp1830
L127L
aVDon't Fade Away
p1831
aa(lp1832
L127L
aVBuddy Holly
p1833
aa(lp1834
L127L
aVBlues
p1835
aa(lp1836
L127L
aVU2
p1837
aa(lp1838
L127L
aVDesire
p1839
aa(lp1840
L127L
aVRattle and Hum
p1841
aa(lp1842
L128L
aVMac
p1843
aa(lp1844
L128L
aVGoogle Desktop Search
p1845
aa(lp1846
L128L
aVWindows
p1847
aa(lp1848
L128L
aVTerminal
p1849
aa(lp1850
L128L
aVCommand line
p1851
aa(lp1852
L128L
aVwget
p1853
aa(lp1854
L128L
aVcurl
p1855
aa(lp1856
L128L
aVmirror
p1857
aa(lp1858
L128L
aVweb site
p1859
aa(lp1860
L128L
aVmirror a web site
p1861
aa(lp1862
L128L
aVmirror a site
p1863
aa(lp1864
L128L
aVfink
p1865
aa(lp1866
L128L
aVXCode
p1867
aa(lp1868
L129L
aVHTML
p1869
aa(lp1870
L134L
ag1869
aa(lp1871
L129L
aVtelecommunications policy
p1872
aa(lp1873
L129L
aVtickertube
p1874
aa(lp1875
L129L
aVamazon
p1876
aa(lp1877
L130L
ag1876
aa(lp1878
L129L
aVec2
p1879
aa(lp1880
L129L
aVamazon web services
p1881
aa(lp1882
L129L
aVapache
p1883
aa(lp1884
L129L
aVfeedjack
p1885
aa(lp1886
L129L
aVyui
p1887
aa(lp1888
L129L
aVfeed aggregator
p1889
aa(lp1890
L129L
aVtech
p1891
aa(lp1892
L129L
aVpolicy
p1893
aa(lp1894
L129L
aVfcc
p1895
aa(lp1896
L129L
aVnews
p1897
aa(lp1898
L147L
ag1897
aa(lp1899
L129L
aVcss
p1900
aa(lp1901
L129L
aVblackberry
p1902
aa(lp1903
L130L
aVkindle
p1904
aa(lp1905
L130L
aVsubscription
p1906
aa(lp1907
L131L
aVnytimes
p1908
aa(lp1909
L131L
aVonline ads
p1910
aa(lp1911
L131L
aVeden fantasies
p1912
aa(lp1913
L131L
aVsex ads
p1914
aa(lp1915
L131L
aVanal massage for lovers
p1916
aa(lp1917
L131L
aVblow him away
p1918
aa(lp1919
L131L
aVerotica
p1920
aa(lp1921
L131L
aVpornography
p1922
aa(lp1923
L131L
aVsexual instruction manuals
p1924
aa(lp1925
L132L
aVgasoline
p1926
aa(lp1927
L132L
aVsnake
p1928
aa(lp1929
L132L
aVbike courier
p1930
aa(lp1931
L133L
aVJesse Helms
p1932
aa(lp1933
L133L
aVNorth Carolina
p1934
aa(lp1935
L133L
aVwordle
p1936
aa(lp1937
L134L
aVonline database
p1938
aa(lp1939
L134L
aVDoug Smith
p1940
aa(lp1941
L134L
aVCharles Piller
p1942
aa(lp1943
L134L
aVMatt Waite
p1944
aa(lp1945
L134L
aVdeep link
p1946
aa(lp1947
L134L
aVCaspio Bridge
p1948
aa(lp1949
L134L
aVsearch box
p1950
aa(lp1951
L134L
aVpermalink
p1952
aa(lp1953
L134L
aVcharity
p1954
aa(lp1955
L134L
aVmorningstar
p1956
aa(lp1957
L134L
aVfundraising
p1958
aa(lp1959
L134L
aVquery string
p1960
aa(lp1961
L134L
aVCaspio Hacks
p1962
aa(lp1963
L134L
aVhacks
p1964
aa(lp1965
L134L
aVcustom form
p1966
aa(lp1967
L134L
aVwalkthrough
p1968
aa(lp1969
L134L
aVGUI
p1970
aa(lp1971
L134L
aVThomas Lauder
p1972
aa(lp1973
L135L
aVClear Channel
p1974
aa(lp1975
L135L
aVmedia executives
p1976
aa(lp1977
L135L
aVRandy Michaels
p1978
aa(lp1979
L135L
aVelectronic media
p1980
aa(lp1981
L135L
aVthe web
p1982
aa(lp1983
L135L
aVconsolidation
p1984
aa(lp1985
L135L
aVthe telecommunications act of 1996
p1986
aa(lp1987
L135L
aVregulation
p1988
aa(lp1989
L135L
aVsynergy
p1990
aa(lp1991
L135L
aVopportunity cost
p1992
aa(lp1993
L135L
aVjournalism
p1994
aa(lp1995
L135L
aVonline
p1996
aa(lp1997
L135L
aVJacor
p1998
aa(lp1999
L135L
aVMcClatchey
p2000
aa(lp2001
L135L
aVEric Klinenberg
p2002
aa(lp2003
L135L
aVmedia execs
p2004
aa(lp2005
L147L
aVdata-driven news applications
p2006
aa(lp2007
L147L
aVrails
p2008
aa(lp2009
L147L
aV"web development"
p2010
aa(lp2011
L147L
aV"news driven development"
p2012
aa(lp2013
L147L
aVmetrolink crash
p2014
aa(lp2015
L147L
aVDRY
p2016
aa.